---
triple:          'arm64-apple-darwin'
binary-path:     game_debug
relocations:
  - { offsetInCU: 0x5B9D, offset: 0x5B9D, size: 0x8, addend: 0x0, symName: __ZNSt3__112__to_addressB8ue170006IP4WallEEPT_S4_, symObjAddr: 0x17F8, symBinAddr: 0x100004C84, symSize: 0x14 }
  - { offsetInCU: 0x5BD2, offset: 0x5BD2, size: 0x8, addend: 0x0, symName: __ZNSt3__119__libcpp_deallocateB8ue170006EPvmm, symObjAddr: 0x18D0, symBinAddr: 0x100004D5C, symSize: 0x30 }
  - { offsetInCU: 0x5C1A, offset: 0x5C1A, size: 0x8, addend: 0x0, symName: __ZNSt3__127__do_deallocate_handle_sizeB8ue170006IJEEEvPvmDpT_, symObjAddr: 0x1900, symBinAddr: 0x100004D8C, symSize: 0x28 }
  - { offsetInCU: 0x5C58, offset: 0x5C58, size: 0x8, addend: 0x0, symName: __ZNSt3__124__libcpp_operator_deleteB8ue170006IJPvEEEvDpT_, symObjAddr: 0x1928, symBinAddr: 0x100004DB4, symSize: 0x24 }
  - { offsetInCU: 0x5C8D, offset: 0x5C8D, size: 0x8, addend: 0x0, symName: __ZNSt3__112__to_addressB8ue170006I4Vec2EEPT_S3_, symObjAddr: 0x24FC, symBinAddr: 0x100005988, symSize: 0x14 }
  - { offsetInCU: 0x5CC2, offset: 0x5CC2, size: 0x8, addend: 0x0, symName: __ZNSt3__13maxB8ue170006ImEERKT_S3_S3_, symObjAddr: 0x2918, symBinAddr: 0x100005DA4, symSize: 0x2C }
  - { offsetInCU: 0x5D05, offset: 0x5D05, size: 0x8, addend: 0x0, symName: __ZNSt3__13minB8ue170006ImEERKT_S3_S3_, symObjAddr: 0x2944, symBinAddr: 0x100005DD0, symSize: 0x2C }
  - { offsetInCU: 0x5F49, offset: 0x5F49, size: 0x8, addend: 0x0, symName: __ZNSt3__13minB8ue170006ImNS_6__lessIvvEEEERKT_S5_S5_T0_, symObjAddr: 0x29D0, symBinAddr: 0x100005E5C, symSize: 0x54 }
  - { offsetInCU: 0x5FE8, offset: 0x5FE8, size: 0x8, addend: 0x0, symName: __ZNSt3__120__throw_length_errorB8ue170006EPKc, symObjAddr: 0x2AAC, symBinAddr: 0x100005F38, symSize: 0x64 }
  - { offsetInCU: 0x6012, offset: 0x6012, size: 0x8, addend: 0x0, symName: __ZNSt3__13maxB8ue170006ImNS_6__lessIvvEEEERKT_S5_S5_T0_, symObjAddr: 0x2BF0, symBinAddr: 0x10000607C, symSize: 0x54 }
  - { offsetInCU: 0x606C, offset: 0x606C, size: 0x8, addend: 0x0, symName: __ZNSt3__119__allocate_at_leastB8ue170006INS_9allocatorI4Vec2EEEENS_19__allocation_resultINS_16allocator_traitsIT_E7pointerEEERS6_m, symObjAddr: 0x2D54, symBinAddr: 0x1000061E0, symSize: 0x40 }
  - { offsetInCU: 0x60AF, offset: 0x60AF, size: 0x8, addend: 0x0, symName: __ZNSt3__117__libcpp_allocateB8ue170006Emm, symObjAddr: 0x2ED8, symBinAddr: 0x100006364, symSize: 0x28 }
  - { offsetInCU: 0x60EC, offset: 0x60EC, size: 0x8, addend: 0x0, symName: __ZNSt3__121__libcpp_operator_newB8ue170006IJmEEEPvDpT_, symObjAddr: 0x2F00, symBinAddr: 0x10000638C, symSize: 0x24 }
  - { offsetInCU: 0x6125, offset: 0x6125, size: 0x8, addend: 0x0, symName: __ZNSt3__142__uninitialized_allocator_move_if_noexceptB8ue170006INS_9allocatorI4Vec2EENS_16reverse_iteratorIPS2_EES6_S6_EET2_RT_T0_T1_S7_, symObjAddr: 0x3040, symBinAddr: 0x1000064CC, symSize: 0x12C }
  - { offsetInCU: 0x61C5, offset: 0x61C5, size: 0x8, addend: 0x0, symName: __ZNSt3__14swapB8ue170006IP4Vec2EENS_9enable_ifIXaasr21is_move_constructibleIT_EE5valuesr18is_move_assignableIS4_EE5valueEvE4typeERS4_S7_, symObjAddr: 0x31B8, symBinAddr: 0x100006644, symSize: 0x3C }
  - { offsetInCU: 0x6216, offset: 0x6216, size: 0x8, addend: 0x0, symName: __ZNSt3__122__make_exception_guardB8ue170006INS_29_AllocatorDestroyRangeReverseINS_9allocatorI4Vec2EENS_16reverse_iteratorIPS3_EEEEEENS_28__exception_guard_exceptionsIT_EESA_, symObjAddr: 0x32E8, symBinAddr: 0x100006774, symSize: 0x4C }
  - { offsetInCU: 0x624C, offset: 0x624C, size: 0x8, addend: 0x0, symName: __ZNSt3__1neB8ue170006IP4Vec2S2_EEbRKNS_16reverse_iteratorIT_EERKNS3_IT0_EE, symObjAddr: 0x3378, symBinAddr: 0x100006804, symSize: 0x48 }
  - { offsetInCU: 0x6298, offset: 0x6298, size: 0x8, addend: 0x0, symName: __ZNSt3__112__to_addressB8ue170006INS_16reverse_iteratorIP4Vec2EEvEEu7__decayIDTclsr19__to_address_helperIT_EE6__callclsr3stdE7declvalIRKS5_EEEEES7_, symObjAddr: 0x33F4, symBinAddr: 0x100006880, symSize: 0x24 }
  - { offsetInCU: 0x62F7, offset: 0x62F7, size: 0x8, addend: 0x0, symName: __ZNSt3__119__allocator_destroyB8ue170006INS_9allocatorI4Vec2EENS_16reverse_iteratorINS4_IPS2_EEEES7_EEvRT_T0_T1_, symObjAddr: 0x36CC, symBinAddr: 0x100006B58, symSize: 0x70 }
  - { offsetInCU: 0x635C, offset: 0x635C, size: 0x8, addend: 0x0, symName: __ZNSt3__1neB8ue170006INS_16reverse_iteratorIP4Vec2EES4_EEbRKNS1_IT_EERKNS1_IT0_EE, symObjAddr: 0x3778, symBinAddr: 0x100006C04, symSize: 0x60 }
  - { offsetInCU: 0x63A8, offset: 0x63A8, size: 0x8, addend: 0x0, symName: __ZNSt3__112__to_addressB8ue170006INS_16reverse_iteratorINS1_IP4Vec2EEEEvEEu7__decayIDTclsr19__to_address_helperIT_EE6__callclsr3stdE7declvalIRKS6_EEEEES8_, symObjAddr: 0x3804, symBinAddr: 0x100006C90, symSize: 0x24 }
  - { offsetInCU: 0x6670, offset: 0x6670, size: 0x8, addend: 0x0, symName: __ZSt28__throw_bad_array_new_lengthB8ue170006v, symObjAddr: 0x2EA4, symBinAddr: 0x100006330, symSize: 0x34 }
  - { offsetInCU: 0x6D77, offset: 0x6D77, size: 0x8, addend: 0x0, symName: __ZNSt3__16vectorI4Vec2NS_9allocatorIS1_EEE26__swap_out_circular_bufferERNS_14__split_bufferIS1_RS3_EE, symObjAddr: 0x2720, symBinAddr: 0x100005BAC, symSize: 0x110 }
  - { offsetInCU: 0x9086, offset: 0x9086, size: 0x8, addend: 0x0, symName: __Z8isActual4Vec2S_, symObjAddr: 0x0, symBinAddr: 0x10000348C, symSize: 0x1C }
  - { offsetInCU: 0x90C2, offset: 0x90C2, size: 0x8, addend: 0x0, symName: _main, symObjAddr: 0x1C, symBinAddr: 0x1000034A8, symSize: 0x59C }
  - { offsetInCU: 0x9247, offset: 0x9247, size: 0x8, addend: 0x0, symName: __ZN5WallsC1EPKcS1_i, symObjAddr: 0x5B8, symBinAddr: 0x100003A44, symSize: 0x44 }
  - { offsetInCU: 0x9299, offset: 0x9299, size: 0x8, addend: 0x0, symName: __ZN4Vec2C1Ev, symObjAddr: 0x5FC, symBinAddr: 0x100003A88, symSize: 0x2C }
  - { offsetInCU: 0x92C1, offset: 0x92C1, size: 0x8, addend: 0x0, symName: __ZN5Walls7getRootEv, symObjAddr: 0x628, symBinAddr: 0x100003AB4, symSize: 0x18 }
  - { offsetInCU: 0x92E5, offset: 0x92E5, size: 0x8, addend: 0x0, symName: __ZN3dot5set_xEd, symObjAddr: 0x640, symBinAddr: 0x100003ACC, symSize: 0x20 }
  - { offsetInCU: 0x9317, offset: 0x9317, size: 0x8, addend: 0x0, symName: __ZN3dot5set_yEd, symObjAddr: 0x660, symBinAddr: 0x100003AEC, symSize: 0x20 }
  - { offsetInCU: 0x9349, offset: 0x9349, size: 0x8, addend: 0x0, symName: __ZN4Vec2D1Ev, symObjAddr: 0x680, symBinAddr: 0x100003B0C, symSize: 0x2C }
  - { offsetInCU: 0x9371, offset: 0x9371, size: 0x8, addend: 0x0, symName: __ZN3dotC1Edd, symObjAddr: 0x6AC, symBinAddr: 0x100003B38, symSize: 0x3C }
  - { offsetInCU: 0x9499, offset: 0x9499, size: 0x8, addend: 0x0, symName: __ZN8ColliderC1Ev, symObjAddr: 0x6E8, symBinAddr: 0x100003B74, symSize: 0x2C }
  - { offsetInCU: 0x94C3, offset: 0x94C3, size: 0x8, addend: 0x0, symName: __ZN8Collider8findWallEP4Vec2P4Wall, symObjAddr: 0x714, symBinAddr: 0x100003BA0, symSize: 0x520 }
  - { offsetInCU: 0x9594, offset: 0x9594, size: 0x8, addend: 0x0, symName: __ZN8Collider7getVecsEv, symObjAddr: 0xC34, symBinAddr: 0x1000040C0, symSize: 0x24 }
  - { offsetInCU: 0x95B8, offset: 0x95B8, size: 0x8, addend: 0x0, symName: __ZN8Collider9getVecsNoEv, symObjAddr: 0xC58, symBinAddr: 0x1000040E4, symSize: 0x24 }
  - { offsetInCU: 0x9690, offset: 0x9690, size: 0x8, addend: 0x0, symName: __ZN10VisualizerC1EP4WallP4Vec2i, symObjAddr: 0xC7C, symBinAddr: 0x100004108, symSize: 0x44 }
  - { offsetInCU: 0x96E2, offset: 0x96E2, size: 0x8, addend: 0x0, symName: __ZN10Visualizer4showEb, symObjAddr: 0xCC0, symBinAddr: 0x10000414C, symSize: 0x60 }
  - { offsetInCU: 0x9714, offset: 0x9714, size: 0x8, addend: 0x0, symName: __ZN5WallsD1Ev, symObjAddr: 0xD20, symBinAddr: 0x1000041AC, symSize: 0x2C }
  - { offsetInCU: 0x973C, offset: 0x973C, size: 0x8, addend: 0x0, symName: __ZN8ColliderD1Ev, symObjAddr: 0xD4C, symBinAddr: 0x1000041D8, symSize: 0x2C }
  - { offsetInCU: 0x9766, offset: 0x9766, size: 0x8, addend: 0x0, symName: __ZN5WallsC2EPKcS1_i, symObjAddr: 0xD78, symBinAddr: 0x100004204, symSize: 0x88 }
  - { offsetInCU: 0x97B8, offset: 0x97B8, size: 0x8, addend: 0x0, symName: __ZNSt3__16vectorIP4WallNS_9allocatorIS2_EEEC1B8ue170006Ev, symObjAddr: 0xE00, symBinAddr: 0x10000428C, symSize: 0x2C }
  - { offsetInCU: 0x97E0, offset: 0x97E0, size: 0x8, addend: 0x0, symName: __ZN5Walls12readDotsFileEPKc, symObjAddr: 0xE2C, symBinAddr: 0x1000042B8, symSize: 0x180 }
  - { offsetInCU: 0x987A, offset: 0x987A, size: 0x8, addend: 0x0, symName: __ZN5Walls12readWallFileEPKc, symObjAddr: 0xFAC, symBinAddr: 0x100004438, symSize: 0x250 }
  - { offsetInCU: 0x996F, offset: 0x996F, size: 0x8, addend: 0x0, symName: __ZNSt3__16vectorIP4WallNS_9allocatorIS2_EEED1B8ue170006Ev, symObjAddr: 0x11FC, symBinAddr: 0x100004688, symSize: 0x2C }
  - { offsetInCU: 0x9997, offset: 0x9997, size: 0x8, addend: 0x0, symName: __ZNSt3__16vectorIP4WallNS_9allocatorIS2_EEEC2B8ue170006Ev, symObjAddr: 0x1228, symBinAddr: 0x1000046B4, symSize: 0x4C }
  - { offsetInCU: 0x99C9, offset: 0x99C9, size: 0x8, addend: 0x0, symName: __ZNSt3__117__compressed_pairIPP4WallNS_9allocatorIS2_EEEC1B8ue170006IDnNS_18__default_init_tagEEEOT_OT0_, symObjAddr: 0x1274, symBinAddr: 0x100004700, symSize: 0x3C }
  - { offsetInCU: 0x9A1F, offset: 0x9A1F, size: 0x8, addend: 0x0, symName: __ZNSt3__117__compressed_pairIPP4WallNS_9allocatorIS2_EEEC2B8ue170006IDnNS_18__default_init_tagEEEOT_OT0_, symObjAddr: 0x12BC, symBinAddr: 0x100004748, symSize: 0x40 }
  - { offsetInCU: 0x9A75, offset: 0x9A75, size: 0x8, addend: 0x0, symName: __ZNSt3__122__compressed_pair_elemIPP4WallLi0ELb0EEC2B8ue170006IDnvEEOT_, symObjAddr: 0x12FC, symBinAddr: 0x100004788, symSize: 0x1C }
  - { offsetInCU: 0x9AB5, offset: 0x9AB5, size: 0x8, addend: 0x0, symName: __ZNSt3__122__compressed_pair_elemINS_9allocatorIP4WallEELi1ELb1EEC2B8ue170006ENS_18__default_init_tagE, symObjAddr: 0x1318, symBinAddr: 0x1000047A4, symSize: 0x2C }
  - { offsetInCU: 0x9AE7, offset: 0x9AE7, size: 0x8, addend: 0x0, symName: __ZNSt3__19allocatorIP4WallEC2B8ue170006Ev, symObjAddr: 0x1344, symBinAddr: 0x1000047D0, symSize: 0x2C }
  - { offsetInCU: 0x9B0F, offset: 0x9B0F, size: 0x8, addend: 0x0, symName: __ZNSt3__116__non_trivial_ifILb1ENS_9allocatorIP4WallEEEC2B8ue170006Ev, symObjAddr: 0x1370, symBinAddr: 0x1000047FC, symSize: 0x14 }
  - { offsetInCU: 0x9B37, offset: 0x9B37, size: 0x8, addend: 0x0, symName: __ZN3dotC1Ev, symObjAddr: 0x1384, symBinAddr: 0x100004810, symSize: 0x2C }
  - { offsetInCU: 0x9B5F, offset: 0x9B5F, size: 0x8, addend: 0x0, symName: __ZN3dot5setupEdd, symObjAddr: 0x13B0, symBinAddr: 0x10000483C, symSize: 0x74 }
  - { offsetInCU: 0x9B9F, offset: 0x9B9F, size: 0x8, addend: 0x0, symName: __ZN3dotC2Ev, symObjAddr: 0x1424, symBinAddr: 0x1000048B0, symSize: 0x20 }
  - { offsetInCU: 0x9BC7, offset: 0x9BC7, size: 0x8, addend: 0x0, symName: __ZN4WallC1Ev, symObjAddr: 0x1444, symBinAddr: 0x1000048D0, symSize: 0x2C }
  - { offsetInCU: 0x9BF1, offset: 0x9BF1, size: 0x8, addend: 0x0, symName: __ZN4WallC2Ev, symObjAddr: 0x1470, symBinAddr: 0x1000048FC, symSize: 0x2C }
  - { offsetInCU: 0x9C1B, offset: 0x9C1B, size: 0x8, addend: 0x0, symName: __ZNSt3__16vectorIP4WallNS_9allocatorIS2_EEED2B8ue170006Ev, symObjAddr: 0x149C, symBinAddr: 0x100004928, symSize: 0x44 }
  - { offsetInCU: 0x9C43, offset: 0x9C43, size: 0x8, addend: 0x0, symName: __ZNSt3__16vectorIP4WallNS_9allocatorIS2_EEE16__destroy_vectorC1B8ue170006ERS5_, symObjAddr: 0x14E0, symBinAddr: 0x10000496C, symSize: 0x34 }
  - { offsetInCU: 0x9C7A, offset: 0x9C7A, size: 0x8, addend: 0x0, symName: __ZNSt3__16vectorIP4WallNS_9allocatorIS2_EEE16__destroy_vectorclB8ue170006Ev, symObjAddr: 0x1514, symBinAddr: 0x1000049A0, symSize: 0x90 }
  - { offsetInCU: 0x9C9E, offset: 0x9C9E, size: 0x8, addend: 0x0, symName: __ZNSt3__16vectorIP4WallNS_9allocatorIS2_EEE16__destroy_vectorC2B8ue170006ERS5_, symObjAddr: 0x15A4, symBinAddr: 0x100004A30, symSize: 0x20 }
  - { offsetInCU: 0x9CD5, offset: 0x9CD5, size: 0x8, addend: 0x0, symName: __ZNSt3__16vectorIP4WallNS_9allocatorIS2_EEE7__clearB8ue170006Ev, symObjAddr: 0x15C4, symBinAddr: 0x100004A50, symSize: 0x28 }
  - { offsetInCU: 0x9CF9, offset: 0x9CF9, size: 0x8, addend: 0x0, symName: __ZNKSt3__16vectorIP4WallNS_9allocatorIS2_EEE17__annotate_deleteB8ue170006Ev, symObjAddr: 0x15EC, symBinAddr: 0x100004A78, symSize: 0xB8 }
  - { offsetInCU: 0x9D1D, offset: 0x9D1D, size: 0x8, addend: 0x0, symName: __ZNSt3__116allocator_traitsINS_9allocatorIP4WallEEE10deallocateB8ue170006ERS4_PS3_m, symObjAddr: 0x16A4, symBinAddr: 0x100004B30, symSize: 0x34 }
  - { offsetInCU: 0x9D5E, offset: 0x9D5E, size: 0x8, addend: 0x0, symName: __ZNSt3__16vectorIP4WallNS_9allocatorIS2_EEE7__allocB8ue170006Ev, symObjAddr: 0x16D8, symBinAddr: 0x100004B64, symSize: 0x28 }
  - { offsetInCU: 0x9D82, offset: 0x9D82, size: 0x8, addend: 0x0, symName: __ZNKSt3__16vectorIP4WallNS_9allocatorIS2_EEE8capacityB8ue170006Ev, symObjAddr: 0x1700, symBinAddr: 0x100004B8C, symSize: 0x40 }
  - { offsetInCU: 0x9DA6, offset: 0x9DA6, size: 0x8, addend: 0x0, symName: __ZNSt3__16vectorIP4WallNS_9allocatorIS2_EEE22__base_destruct_at_endB8ue170006EPS2_, symObjAddr: 0x1740, symBinAddr: 0x100004BCC, symSize: 0x8C }
  - { offsetInCU: 0x9DE8, offset: 0x9DE8, size: 0x8, addend: 0x0, symName: __ZNSt3__116allocator_traitsINS_9allocatorIP4WallEEE7destroyB8ue170006IS3_vEEvRS4_PT_, symObjAddr: 0x17CC, symBinAddr: 0x100004C58, symSize: 0x2C }
  - { offsetInCU: 0x9E24, offset: 0x9E24, size: 0x8, addend: 0x0, symName: __ZNSt3__19allocatorIP4WallE7destroyB8ue170006EPS2_, symObjAddr: 0x180C, symBinAddr: 0x100004C98, symSize: 0x14 }
  - { offsetInCU: 0x9E56, offset: 0x9E56, size: 0x8, addend: 0x0, symName: __ZNKSt3__16vectorIP4WallNS_9allocatorIS2_EEE31__annotate_contiguous_containerB8ue170006EPKvS7_S7_S7_, symObjAddr: 0x1820, symBinAddr: 0x100004CAC, symSize: 0x20 }
  - { offsetInCU: 0x9EA6, offset: 0x9EA6, size: 0x8, addend: 0x0, symName: __ZNKSt3__16vectorIP4WallNS_9allocatorIS2_EEE4dataB8ue170006Ev, symObjAddr: 0x1840, symBinAddr: 0x100004CCC, symSize: 0x28 }
  - { offsetInCU: 0x9ECA, offset: 0x9ECA, size: 0x8, addend: 0x0, symName: __ZNKSt3__16vectorIP4WallNS_9allocatorIS2_EEE4sizeB8ue170006Ev, symObjAddr: 0x1868, symBinAddr: 0x100004CF4, symSize: 0x28 }
  - { offsetInCU: 0x9EEE, offset: 0x9EEE, size: 0x8, addend: 0x0, symName: __ZNSt3__19allocatorIP4WallE10deallocateB8ue170006EPS2_m, symObjAddr: 0x1890, symBinAddr: 0x100004D1C, symSize: 0x40 }
  - { offsetInCU: 0x9F2E, offset: 0x9F2E, size: 0x8, addend: 0x0, symName: __ZNSt3__117__compressed_pairIPP4WallNS_9allocatorIS2_EEE6secondB8ue170006Ev, symObjAddr: 0x194C, symBinAddr: 0x100004DD8, symSize: 0x24 }
  - { offsetInCU: 0x9F52, offset: 0x9F52, size: 0x8, addend: 0x0, symName: __ZNSt3__122__compressed_pair_elemINS_9allocatorIP4WallEELi1ELb1EE5__getB8ue170006Ev, symObjAddr: 0x1970, symBinAddr: 0x100004DFC, symSize: 0x14 }
  - { offsetInCU: 0x9F76, offset: 0x9F76, size: 0x8, addend: 0x0, symName: __ZNKSt3__16vectorIP4WallNS_9allocatorIS2_EEE9__end_capB8ue170006Ev, symObjAddr: 0x1984, symBinAddr: 0x100004E10, symSize: 0x28 }
  - { offsetInCU: 0x9F9A, offset: 0x9F9A, size: 0x8, addend: 0x0, symName: __ZNKSt3__117__compressed_pairIPP4WallNS_9allocatorIS2_EEE5firstB8ue170006Ev, symObjAddr: 0x19AC, symBinAddr: 0x100004E38, symSize: 0x24 }
  - { offsetInCU: 0x9FBE, offset: 0x9FBE, size: 0x8, addend: 0x0, symName: __ZNKSt3__122__compressed_pair_elemIPP4WallLi0ELb0EE5__getB8ue170006Ev, symObjAddr: 0x19D0, symBinAddr: 0x100004E5C, symSize: 0x14 }
  - { offsetInCU: 0x9FE2, offset: 0x9FE2, size: 0x8, addend: 0x0, symName: __ZN4Vec2C2Ev, symObjAddr: 0x19E4, symBinAddr: 0x100004E70, symSize: 0xA4 }
  - { offsetInCU: 0xA00A, offset: 0xA00A, size: 0x8, addend: 0x0, symName: __ZN4Vec2D2Ev, symObjAddr: 0x1A88, symBinAddr: 0x100004F14, symSize: 0x14 }
  - { offsetInCU: 0xA032, offset: 0xA032, size: 0x8, addend: 0x0, symName: __ZN3dotC2Edd, symObjAddr: 0x1A9C, symBinAddr: 0x100004F28, symSize: 0x2C }
  - { offsetInCU: 0xA076, offset: 0xA076, size: 0x8, addend: 0x0, symName: __ZN8ColliderC2Ev, symObjAddr: 0x1AC8, symBinAddr: 0x100004F54, symSize: 0x2C }
  - { offsetInCU: 0xA0A0, offset: 0xA0A0, size: 0x8, addend: 0x0, symName: __ZNSt3__16vectorI4Vec2NS_9allocatorIS1_EEEC1B8ue170006Ev, symObjAddr: 0x1AF4, symBinAddr: 0x100004F80, symSize: 0x2C }
  - { offsetInCU: 0xA0C8, offset: 0xA0C8, size: 0x8, addend: 0x0, symName: __ZNSt3__16vectorI4Vec2NS_9allocatorIS1_EEEC2B8ue170006Ev, symObjAddr: 0x1B20, symBinAddr: 0x100004FAC, symSize: 0x4C }
  - { offsetInCU: 0xA0F0, offset: 0xA0F0, size: 0x8, addend: 0x0, symName: __ZNSt3__117__compressed_pairIP4Vec2NS_9allocatorIS1_EEEC1B8ue170006IDnNS_18__default_init_tagEEEOT_OT0_, symObjAddr: 0x1B6C, symBinAddr: 0x100004FF8, symSize: 0x3C }
  - { offsetInCU: 0xA146, offset: 0xA146, size: 0x8, addend: 0x0, symName: __ZNSt3__117__compressed_pairIP4Vec2NS_9allocatorIS1_EEEC2B8ue170006IDnNS_18__default_init_tagEEEOT_OT0_, symObjAddr: 0x1BA8, symBinAddr: 0x100005034, symSize: 0x40 }
  - { offsetInCU: 0xA19C, offset: 0xA19C, size: 0x8, addend: 0x0, symName: __ZNSt3__122__compressed_pair_elemIP4Vec2Li0ELb0EEC2B8ue170006IDnvEEOT_, symObjAddr: 0x1BE8, symBinAddr: 0x100005074, symSize: 0x1C }
  - { offsetInCU: 0xA1DC, offset: 0xA1DC, size: 0x8, addend: 0x0, symName: __ZNSt3__122__compressed_pair_elemINS_9allocatorI4Vec2EELi1ELb1EEC2B8ue170006ENS_18__default_init_tagE, symObjAddr: 0x1C04, symBinAddr: 0x100005090, symSize: 0x2C }
  - { offsetInCU: 0xA20E, offset: 0xA20E, size: 0x8, addend: 0x0, symName: __ZNSt3__19allocatorI4Vec2EC2B8ue170006Ev, symObjAddr: 0x1C30, symBinAddr: 0x1000050BC, symSize: 0x2C }
  - { offsetInCU: 0xA236, offset: 0xA236, size: 0x8, addend: 0x0, symName: __ZNSt3__116__non_trivial_ifILb1ENS_9allocatorI4Vec2EEEC2B8ue170006Ev, symObjAddr: 0x1C5C, symBinAddr: 0x1000050E8, symSize: 0x14 }
  - { offsetInCU: 0xA25E, offset: 0xA25E, size: 0x8, addend: 0x0, symName: __ZNSt3__16vectorI4Vec2NS_9allocatorIS1_EEE9push_backB8ue170006ERKS1_, symObjAddr: 0x1C70, symBinAddr: 0x1000050FC, symSize: 0x6C }
  - { offsetInCU: 0xA293, offset: 0xA293, size: 0x8, addend: 0x0, symName: __ZN8Collider5isWooEP3dotP4Wall, symObjAddr: 0x1CDC, symBinAddr: 0x100005168, symSize: 0x108 }
  - { offsetInCU: 0xA318, offset: 0xA318, size: 0x8, addend: 0x0, symName: __ZN8Collider11isCollisionEP4Vec2S1_, symObjAddr: 0x1DE4, symBinAddr: 0x100005270, symSize: 0x204 }
  - { offsetInCU: 0xA401, offset: 0xA401, size: 0x8, addend: 0x0, symName: __ZN4Wall4vec2Ev, symObjAddr: 0x1FE8, symBinAddr: 0x100005474, symSize: 0x84 }
  - { offsetInCU: 0xA425, offset: 0xA425, size: 0x8, addend: 0x0, symName: __ZN3dot5set_xES_, symObjAddr: 0x206C, symBinAddr: 0x1000054F8, symSize: 0x40 }
  - { offsetInCU: 0xA457, offset: 0xA457, size: 0x8, addend: 0x0, symName: __ZN3dot5set_yES_, symObjAddr: 0x20AC, symBinAddr: 0x100005538, symSize: 0x40 }
  - { offsetInCU: 0xA489, offset: 0xA489, size: 0x8, addend: 0x0, symName: __ZN3dotplERKS_, symObjAddr: 0x20EC, symBinAddr: 0x100005578, symSize: 0x64 }
  - { offsetInCU: 0xA4C9, offset: 0xA4C9, size: 0x8, addend: 0x0, symName: __ZN3dotmiERKS_, symObjAddr: 0x2150, symBinAddr: 0x1000055DC, symSize: 0x64 }
  - { offsetInCU: 0xA509, offset: 0xA509, size: 0x8, addend: 0x0, symName: __ZN3dotmlERKd, symObjAddr: 0x21B4, symBinAddr: 0x100005640, symSize: 0x64 }
  - { offsetInCU: 0xA549, offset: 0xA549, size: 0x8, addend: 0x0, symName: __ZN3dot3setES_, symObjAddr: 0x2218, symBinAddr: 0x1000056A4, symSize: 0x54 }
  - { offsetInCU: 0xA57B, offset: 0xA57B, size: 0x8, addend: 0x0, symName: __ZN3dot6poll_xEv, symObjAddr: 0x226C, symBinAddr: 0x1000056F8, symSize: 0x18 }
  - { offsetInCU: 0xA59F, offset: 0xA59F, size: 0x8, addend: 0x0, symName: __ZN3dot6poll_yEv, symObjAddr: 0x2284, symBinAddr: 0x100005710, symSize: 0x18 }
  - { offsetInCU: 0xA5C3, offset: 0xA5C3, size: 0x8, addend: 0x0, symName: __ZNSt3__16vectorI4Vec2NS_9allocatorIS1_EEE9__end_capB8ue170006Ev, symObjAddr: 0x229C, symBinAddr: 0x100005728, symSize: 0x28 }
  - { offsetInCU: 0xA5E7, offset: 0xA5E7, size: 0x8, addend: 0x0, symName: __ZNSt3__16vectorI4Vec2NS_9allocatorIS1_EEE22__construct_one_at_endB8ue170006IJRKS1_EEEvDpOT_, symObjAddr: 0x22C4, symBinAddr: 0x100005750, symSize: 0x90 }
  - { offsetInCU: 0xA634, offset: 0xA634, size: 0x8, addend: 0x0, symName: __ZNSt3__16vectorI4Vec2NS_9allocatorIS1_EEE21__push_back_slow_pathIRKS1_EEvOT_, symObjAddr: 0x2354, symBinAddr: 0x1000057E0, symSize: 0xD8 }
  - { offsetInCU: 0xA690, offset: 0xA690, size: 0x8, addend: 0x0, symName: __ZNSt3__117__compressed_pairIP4Vec2NS_9allocatorIS1_EEE5firstB8ue170006Ev, symObjAddr: 0x242C, symBinAddr: 0x1000058B8, symSize: 0x24 }
  - { offsetInCU: 0xA6B4, offset: 0xA6B4, size: 0x8, addend: 0x0, symName: __ZNSt3__122__compressed_pair_elemIP4Vec2Li0ELb0EE5__getB8ue170006Ev, symObjAddr: 0x2450, symBinAddr: 0x1000058DC, symSize: 0x14 }
  - { offsetInCU: 0xA6F1, offset: 0xA6F1, size: 0x8, addend: 0x0, symName: __ZNSt3__16vectorI4Vec2NS_9allocatorIS1_EEE21_ConstructTransactionC1B8ue170006ERS4_m, symObjAddr: 0x2464, symBinAddr: 0x1000058F0, symSize: 0x3C }
  - { offsetInCU: 0xA737, offset: 0xA737, size: 0x8, addend: 0x0, symName: __ZNSt3__116allocator_traitsINS_9allocatorI4Vec2EEE9constructB8ue170006IS2_JRKS2_EvEEvRS3_PT_DpOT0_, symObjAddr: 0x24A0, symBinAddr: 0x10000592C, symSize: 0x34 }
  - { offsetInCU: 0xA78D, offset: 0xA78D, size: 0x8, addend: 0x0, symName: __ZNSt3__16vectorI4Vec2NS_9allocatorIS1_EEE7__allocB8ue170006Ev, symObjAddr: 0x24D4, symBinAddr: 0x100005960, symSize: 0x28 }
  - { offsetInCU: 0xA7B1, offset: 0xA7B1, size: 0x8, addend: 0x0, symName: __ZNSt3__16vectorI4Vec2NS_9allocatorIS1_EEE21_ConstructTransactionD1B8ue170006Ev, symObjAddr: 0x2510, symBinAddr: 0x10000599C, symSize: 0x2C }
  - { offsetInCU: 0xA7D9, offset: 0xA7D9, size: 0x8, addend: 0x0, symName: __ZNSt3__16vectorI4Vec2NS_9allocatorIS1_EEE21_ConstructTransactionC2B8ue170006ERS4_m, symObjAddr: 0x253C, symBinAddr: 0x1000059C8, symSize: 0x44 }
  - { offsetInCU: 0xA81F, offset: 0xA81F, size: 0x8, addend: 0x0, symName: __ZNSt3__19allocatorI4Vec2E9constructB8ue170006IS1_JRKS1_EEEvPT_DpOT0_, symObjAddr: 0x2580, symBinAddr: 0x100005A0C, symSize: 0x28 }
  - { offsetInCU: 0xA873, offset: 0xA873, size: 0x8, addend: 0x0, symName: __ZNSt3__117__compressed_pairIP4Vec2NS_9allocatorIS1_EEE6secondB8ue170006Ev, symObjAddr: 0x25A8, symBinAddr: 0x100005A34, symSize: 0x24 }
  - { offsetInCU: 0xA897, offset: 0xA897, size: 0x8, addend: 0x0, symName: __ZNSt3__122__compressed_pair_elemINS_9allocatorI4Vec2EELi1ELb1EE5__getB8ue170006Ev, symObjAddr: 0x25CC, symBinAddr: 0x100005A58, symSize: 0x14 }
  - { offsetInCU: 0xA8BB, offset: 0xA8BB, size: 0x8, addend: 0x0, symName: __ZNSt3__16vectorI4Vec2NS_9allocatorIS1_EEE21_ConstructTransactionD2B8ue170006Ev, symObjAddr: 0x25E0, symBinAddr: 0x100005A6C, symSize: 0x20 }
  - { offsetInCU: 0xA8E3, offset: 0xA8E3, size: 0x8, addend: 0x0, symName: __ZNKSt3__16vectorI4Vec2NS_9allocatorIS1_EEE11__recommendB8ue170006Em, symObjAddr: 0x2600, symBinAddr: 0x100005A8C, symSize: 0xB4 }
  - { offsetInCU: 0xA936, offset: 0xA936, size: 0x8, addend: 0x0, symName: __ZNKSt3__16vectorI4Vec2NS_9allocatorIS1_EEE4sizeB8ue170006Ev, symObjAddr: 0x26B4, symBinAddr: 0x100005B40, symSize: 0x28 }
  - { offsetInCU: 0xA95B, offset: 0xA95B, size: 0x8, addend: 0x0, symName: __ZNSt3__114__split_bufferI4Vec2RNS_9allocatorIS1_EEEC1EmmS4_, symObjAddr: 0x26DC, symBinAddr: 0x100005B68, symSize: 0x44 }
  - { offsetInCU: 0xA9AF, offset: 0xA9AF, size: 0x8, addend: 0x0, symName: __ZNSt3__114__split_bufferI4Vec2RNS_9allocatorIS1_EEED1Ev, symObjAddr: 0x2830, symBinAddr: 0x100005CBC, symSize: 0x2C }
  - { offsetInCU: 0xA9D8, offset: 0xA9D8, size: 0x8, addend: 0x0, symName: __ZNKSt3__16vectorI4Vec2NS_9allocatorIS1_EEE8max_sizeEv, symObjAddr: 0x285C, symBinAddr: 0x100005CE8, symSize: 0x60 }
  - { offsetInCU: 0xA9FE, offset: 0xA9FE, size: 0x8, addend: 0x0, symName: __ZNKSt3__16vectorI4Vec2NS_9allocatorIS1_EEE20__throw_length_errorB8ue170006Ev, symObjAddr: 0x28BC, symBinAddr: 0x100005D48, symSize: 0x1C }
  - { offsetInCU: 0xAA22, offset: 0xAA22, size: 0x8, addend: 0x0, symName: __ZNKSt3__16vectorI4Vec2NS_9allocatorIS1_EEE8capacityB8ue170006Ev, symObjAddr: 0x28D8, symBinAddr: 0x100005D64, symSize: 0x40 }
  - { offsetInCU: 0xAA50, offset: 0xAA50, size: 0x8, addend: 0x0, symName: __ZNSt3__116allocator_traitsINS_9allocatorI4Vec2EEE8max_sizeB8ue170006IS3_vEEmRKS3_, symObjAddr: 0x2970, symBinAddr: 0x100005DFC, symSize: 0x24 }
  - { offsetInCU: 0xAA7D, offset: 0xAA7D, size: 0x8, addend: 0x0, symName: __ZNKSt3__16vectorI4Vec2NS_9allocatorIS1_EEE7__allocB8ue170006Ev, symObjAddr: 0x2994, symBinAddr: 0x100005E20, symSize: 0x28 }
  - { offsetInCU: 0xAAA2, offset: 0xAAA2, size: 0x8, addend: 0x0, symName: __ZNSt3__114numeric_limitsIlE3maxB8ue170006Ev, symObjAddr: 0x29BC, symBinAddr: 0x100005E48, symSize: 0x14 }
  - { offsetInCU: 0xAAC8, offset: 0xAAC8, size: 0x8, addend: 0x0, symName: __ZNKSt3__16__lessIvvEclB8ue170006ImmEEbRKT_RKT0_, symObjAddr: 0x2A24, symBinAddr: 0x100005EB0, symSize: 0x34 }
  - { offsetInCU: 0xAB1A, offset: 0xAB1A, size: 0x8, addend: 0x0, symName: __ZNKSt3__19allocatorI4Vec2E8max_sizeB8ue170006Ev, symObjAddr: 0x2A58, symBinAddr: 0x100005EE4, symSize: 0x14 }
  - { offsetInCU: 0xAB3E, offset: 0xAB3E, size: 0x8, addend: 0x0, symName: __ZNKSt3__117__compressed_pairIP4Vec2NS_9allocatorIS1_EEE6secondB8ue170006Ev, symObjAddr: 0x2A6C, symBinAddr: 0x100005EF8, symSize: 0x24 }
  - { offsetInCU: 0xAB62, offset: 0xAB62, size: 0x8, addend: 0x0, symName: __ZNKSt3__122__compressed_pair_elemINS_9allocatorI4Vec2EELi1ELb1EE5__getB8ue170006Ev, symObjAddr: 0x2A90, symBinAddr: 0x100005F1C, symSize: 0x14 }
  - { offsetInCU: 0xAB87, offset: 0xAB87, size: 0x8, addend: 0x0, symName: __ZNSt3__123__libcpp_numeric_limitsIlLb1EE3maxB8ue170006Ev, symObjAddr: 0x2AA4, symBinAddr: 0x100005F30, symSize: 0x8 }
  - { offsetInCU: 0xAB9A, offset: 0xAB9A, size: 0x8, addend: 0x0, symName: __ZNSt12length_errorC1B8ue170006EPKc, symObjAddr: 0x2B10, symBinAddr: 0x100005F9C, symSize: 0x34 }
  - { offsetInCU: 0xABD0, offset: 0xABD0, size: 0x8, addend: 0x0, symName: __ZNSt12length_errorC2B8ue170006EPKc, symObjAddr: 0x2B44, symBinAddr: 0x100005FD0, symSize: 0x4C }
  - { offsetInCU: 0xAC06, offset: 0xAC06, size: 0x8, addend: 0x0, symName: __ZNKSt3__16vectorI4Vec2NS_9allocatorIS1_EEE9__end_capB8ue170006Ev, symObjAddr: 0x2B90, symBinAddr: 0x10000601C, symSize: 0x28 }
  - { offsetInCU: 0xAC2A, offset: 0xAC2A, size: 0x8, addend: 0x0, symName: __ZNKSt3__117__compressed_pairIP4Vec2NS_9allocatorIS1_EEE5firstB8ue170006Ev, symObjAddr: 0x2BB8, symBinAddr: 0x100006044, symSize: 0x24 }
  - { offsetInCU: 0xAC4E, offset: 0xAC4E, size: 0x8, addend: 0x0, symName: __ZNKSt3__122__compressed_pair_elemIP4Vec2Li0ELb0EE5__getB8ue170006Ev, symObjAddr: 0x2BDC, symBinAddr: 0x100006068, symSize: 0x14 }
  - { offsetInCU: 0xAC73, offset: 0xAC73, size: 0x8, addend: 0x0, symName: __ZNSt3__114__split_bufferI4Vec2RNS_9allocatorIS1_EEEC2EmmS4_, symObjAddr: 0x2C44, symBinAddr: 0x1000060D0, symSize: 0xD4 }
  - { offsetInCU: 0xACE3, offset: 0xACE3, size: 0x8, addend: 0x0, symName: __ZNSt3__117__compressed_pairIP4Vec2RNS_9allocatorIS1_EEEC1B8ue170006IDnS5_EEOT_OT0_, symObjAddr: 0x2D18, symBinAddr: 0x1000061A4, symSize: 0x3C }
  - { offsetInCU: 0xAD39, offset: 0xAD39, size: 0x8, addend: 0x0, symName: __ZNSt3__114__split_bufferI4Vec2RNS_9allocatorIS1_EEE7__allocB8ue170006Ev, symObjAddr: 0x2D94, symBinAddr: 0x100006220, symSize: 0x28 }
  - { offsetInCU: 0xAD5D, offset: 0xAD5D, size: 0x8, addend: 0x0, symName: __ZNSt3__114__split_bufferI4Vec2RNS_9allocatorIS1_EEE9__end_capB8ue170006Ev, symObjAddr: 0x2DBC, symBinAddr: 0x100006248, symSize: 0x28 }
  - { offsetInCU: 0xAD81, offset: 0xAD81, size: 0x8, addend: 0x0, symName: __ZNSt3__117__compressed_pairIP4Vec2RNS_9allocatorIS1_EEEC2B8ue170006IDnS5_EEOT_OT0_, symObjAddr: 0x2DE4, symBinAddr: 0x100006270, symSize: 0x48 }
  - { offsetInCU: 0xADD7, offset: 0xADD7, size: 0x8, addend: 0x0, symName: __ZNSt3__122__compressed_pair_elemIRNS_9allocatorI4Vec2EELi1ELb0EEC2B8ue170006IS4_vEEOT_, symObjAddr: 0x2E2C, symBinAddr: 0x1000062B8, symSize: 0x20 }
  - { offsetInCU: 0xAE17, offset: 0xAE17, size: 0x8, addend: 0x0, symName: __ZNSt3__19allocatorI4Vec2E8allocateB8ue170006Em, symObjAddr: 0x2E4C, symBinAddr: 0x1000062D8, symSize: 0x58 }
  - { offsetInCU: 0xAE49, offset: 0xAE49, size: 0x8, addend: 0x0, symName: __ZNSt3__117__compressed_pairIP4Vec2RNS_9allocatorIS1_EEE6secondB8ue170006Ev, symObjAddr: 0x2F24, symBinAddr: 0x1000063B0, symSize: 0x28 }
  - { offsetInCU: 0xAE6D, offset: 0xAE6D, size: 0x8, addend: 0x0, symName: __ZNSt3__122__compressed_pair_elemIRNS_9allocatorI4Vec2EELi1ELb0EE5__getB8ue170006Ev, symObjAddr: 0x2F4C, symBinAddr: 0x1000063D8, symSize: 0x18 }
  - { offsetInCU: 0xAE91, offset: 0xAE91, size: 0x8, addend: 0x0, symName: __ZNSt3__117__compressed_pairIP4Vec2RNS_9allocatorIS1_EEE5firstB8ue170006Ev, symObjAddr: 0x2F64, symBinAddr: 0x1000063F0, symSize: 0x24 }
  - { offsetInCU: 0xAEB5, offset: 0xAEB5, size: 0x8, addend: 0x0, symName: __ZNKSt3__16vectorI4Vec2NS_9allocatorIS1_EEE17__annotate_deleteB8ue170006Ev, symObjAddr: 0x2F88, symBinAddr: 0x100006414, symSize: 0xB8 }
  - { offsetInCU: 0xAED9, offset: 0xAED9, size: 0x8, addend: 0x0, symName: __ZNSt3__116reverse_iteratorIP4Vec2EC1B8ue170006ES2_, symObjAddr: 0x316C, symBinAddr: 0x1000065F8, symSize: 0x34 }
  - { offsetInCU: 0xAF0F, offset: 0xAF0F, size: 0x8, addend: 0x0, symName: __ZNKSt3__116reverse_iteratorIP4Vec2E4baseB8ue170006Ev, symObjAddr: 0x31A0, symBinAddr: 0x10000662C, symSize: 0x18 }
  - { offsetInCU: 0xAF33, offset: 0xAF33, size: 0x8, addend: 0x0, symName: __ZNKSt3__16vectorI4Vec2NS_9allocatorIS1_EEE14__annotate_newB8ue170006Em, symObjAddr: 0x31F4, symBinAddr: 0x100006680, symSize: 0xAC }
  - { offsetInCU: 0xAF66, offset: 0xAF66, size: 0x8, addend: 0x0, symName: __ZNKSt3__16vectorI4Vec2NS_9allocatorIS1_EEE31__annotate_contiguous_containerB8ue170006EPKvS6_S6_S6_, symObjAddr: 0x32A0, symBinAddr: 0x10000672C, symSize: 0x20 }
  - { offsetInCU: 0xAFB6, offset: 0xAFB6, size: 0x8, addend: 0x0, symName: __ZNKSt3__16vectorI4Vec2NS_9allocatorIS1_EEE4dataB8ue170006Ev, symObjAddr: 0x32C0, symBinAddr: 0x10000674C, symSize: 0x28 }
  - { offsetInCU: 0xAFDA, offset: 0xAFDA, size: 0x8, addend: 0x0, symName: __ZNSt3__129_AllocatorDestroyRangeReverseINS_9allocatorI4Vec2EENS_16reverse_iteratorIPS2_EEEC1B8ue170006ERS3_RS6_S9_, symObjAddr: 0x3334, symBinAddr: 0x1000067C0, symSize: 0x44 }
  - { offsetInCU: 0xB034, offset: 0xB034, size: 0x8, addend: 0x0, symName: __ZNSt3__116allocator_traitsINS_9allocatorI4Vec2EEE9constructB8ue170006IS2_JS2_EvEEvRS3_PT_DpOT0_, symObjAddr: 0x33C0, symBinAddr: 0x10000684C, symSize: 0x34 }
  - { offsetInCU: 0xB08A, offset: 0xB08A, size: 0x8, addend: 0x0, symName: __ZNKSt3__116reverse_iteratorIP4Vec2EdeB8ue170006Ev, symObjAddr: 0x3418, symBinAddr: 0x1000068A4, symSize: 0x28 }
  - { offsetInCU: 0xB0BC, offset: 0xB0BC, size: 0x8, addend: 0x0, symName: __ZNSt3__116reverse_iteratorIP4Vec2EppB8ue170006Ev, symObjAddr: 0x3440, symBinAddr: 0x1000068CC, symSize: 0x20 }
  - { offsetInCU: 0xB0E0, offset: 0xB0E0, size: 0x8, addend: 0x0, symName: __ZNSt3__128__exception_guard_exceptionsINS_29_AllocatorDestroyRangeReverseINS_9allocatorI4Vec2EENS_16reverse_iteratorIPS3_EEEEE10__completeB8ue170006Ev, symObjAddr: 0x3460, symBinAddr: 0x1000068EC, symSize: 0x1C }
  - { offsetInCU: 0xB104, offset: 0xB104, size: 0x8, addend: 0x0, symName: __ZNSt3__128__exception_guard_exceptionsINS_29_AllocatorDestroyRangeReverseINS_9allocatorI4Vec2EENS_16reverse_iteratorIPS3_EEEEED1B8ue170006Ev, symObjAddr: 0x347C, symBinAddr: 0x100006908, symSize: 0x2C }
  - { offsetInCU: 0xB12C, offset: 0xB12C, size: 0x8, addend: 0x0, symName: __ZNSt3__128__exception_guard_exceptionsINS_29_AllocatorDestroyRangeReverseINS_9allocatorI4Vec2EENS_16reverse_iteratorIPS3_EEEEEC1B8ue170006ES8_, symObjAddr: 0x34A8, symBinAddr: 0x100006934, symSize: 0x34 }
  - { offsetInCU: 0xB163, offset: 0xB163, size: 0x8, addend: 0x0, symName: __ZNSt3__128__exception_guard_exceptionsINS_29_AllocatorDestroyRangeReverseINS_9allocatorI4Vec2EENS_16reverse_iteratorIPS3_EEEEEC2B8ue170006ES8_, symObjAddr: 0x34DC, symBinAddr: 0x100006968, symSize: 0x30 }
  - { offsetInCU: 0xB19A, offset: 0xB19A, size: 0x8, addend: 0x0, symName: __ZNSt3__129_AllocatorDestroyRangeReverseINS_9allocatorI4Vec2EENS_16reverse_iteratorIPS2_EEEC2B8ue170006ERS3_RS6_S9_, symObjAddr: 0x350C, symBinAddr: 0x100006998, symSize: 0x38 }
  - { offsetInCU: 0xB1EF, offset: 0xB1EF, size: 0x8, addend: 0x0, symName: __ZNSt3__19allocatorI4Vec2E9constructB8ue170006IS1_JS1_EEEvPT_DpOT0_, symObjAddr: 0x3544, symBinAddr: 0x1000069D0, symSize: 0x28 }
  - { offsetInCU: 0xB248, offset: 0xB248, size: 0x8, addend: 0x0, symName: __ZNSt3__119__to_address_helperINS_16reverse_iteratorIP4Vec2EEvE6__callB8ue170006ERKS4_, symObjAddr: 0x356C, symBinAddr: 0x1000069F8, symSize: 0x38 }
  - { offsetInCU: 0xB26A, offset: 0xB26A, size: 0x8, addend: 0x0, symName: __ZNKSt3__116reverse_iteratorIP4Vec2EptB8ue170006Ev, symObjAddr: 0x35A4, symBinAddr: 0x100006A30, symSize: 0x24 }
  - { offsetInCU: 0xB28E, offset: 0xB28E, size: 0x8, addend: 0x0, symName: __ZNSt3__128__exception_guard_exceptionsINS_29_AllocatorDestroyRangeReverseINS_9allocatorI4Vec2EENS_16reverse_iteratorIPS3_EEEEED2B8ue170006Ev, symObjAddr: 0x35C8, symBinAddr: 0x100006A54, symSize: 0x50 }
  - { offsetInCU: 0xB2B6, offset: 0xB2B6, size: 0x8, addend: 0x0, symName: __ZNKSt3__129_AllocatorDestroyRangeReverseINS_9allocatorI4Vec2EENS_16reverse_iteratorIPS2_EEEclB8ue170006Ev, symObjAddr: 0x3618, symBinAddr: 0x100006AA4, symSize: 0xB4 }
  - { offsetInCU: 0xB2DB, offset: 0xB2DB, size: 0x8, addend: 0x0, symName: __ZNSt3__116reverse_iteratorINS0_IP4Vec2EEEC1B8ue170006ES3_, symObjAddr: 0x373C, symBinAddr: 0x100006BC8, symSize: 0x3C }
  - { offsetInCU: 0xB311, offset: 0xB311, size: 0x8, addend: 0x0, symName: __ZNSt3__116allocator_traitsINS_9allocatorI4Vec2EEE7destroyB8ue170006IS2_vEEvRS3_PT_, symObjAddr: 0x37D8, symBinAddr: 0x100006C64, symSize: 0x2C }
  - { offsetInCU: 0xB34D, offset: 0xB34D, size: 0x8, addend: 0x0, symName: __ZNSt3__116reverse_iteratorINS0_IP4Vec2EEEppB8ue170006Ev, symObjAddr: 0x3828, symBinAddr: 0x100006CB4, symSize: 0x30 }
  - { offsetInCU: 0xB371, offset: 0xB371, size: 0x8, addend: 0x0, symName: __ZNKSt3__116reverse_iteratorINS0_IP4Vec2EEE4baseB8ue170006Ev, symObjAddr: 0x3858, symBinAddr: 0x100006CE4, symSize: 0x24 }
  - { offsetInCU: 0xB395, offset: 0xB395, size: 0x8, addend: 0x0, symName: __ZNSt3__19allocatorI4Vec2E7destroyB8ue170006EPS1_, symObjAddr: 0x387C, symBinAddr: 0x100006D08, symSize: 0x28 }
  - { offsetInCU: 0xB3CC, offset: 0xB3CC, size: 0x8, addend: 0x0, symName: __ZNSt3__119__to_address_helperINS_16reverse_iteratorINS1_IP4Vec2EEEEvE6__callB8ue170006ERKS5_, symObjAddr: 0x38A4, symBinAddr: 0x100006D30, symSize: 0x38 }
  - { offsetInCU: 0xB3EE, offset: 0xB3EE, size: 0x8, addend: 0x0, symName: __ZNKSt3__116reverse_iteratorINS0_IP4Vec2EEEptB8ue170006Ev, symObjAddr: 0x38DC, symBinAddr: 0x100006D68, symSize: 0x24 }
  - { offsetInCU: 0xB412, offset: 0xB412, size: 0x8, addend: 0x0, symName: __ZNKSt3__116reverse_iteratorINS0_IP4Vec2EEEdeB8ue170006Ev, symObjAddr: 0x3900, symBinAddr: 0x100006D8C, symSize: 0x34 }
  - { offsetInCU: 0xB444, offset: 0xB444, size: 0x8, addend: 0x0, symName: __ZNSt3__116reverse_iteratorIP4Vec2EmmB8ue170006Ev, symObjAddr: 0x3934, symBinAddr: 0x100006DC0, symSize: 0x20 }
  - { offsetInCU: 0xB468, offset: 0xB468, size: 0x8, addend: 0x0, symName: __ZNSt3__116reverse_iteratorINS0_IP4Vec2EEEC2B8ue170006ES3_, symObjAddr: 0x3954, symBinAddr: 0x100006DE0, symSize: 0x2C }
  - { offsetInCU: 0xB49E, offset: 0xB49E, size: 0x8, addend: 0x0, symName: __ZNSt3__116reverse_iteratorIP4Vec2EC2B8ue170006ES2_, symObjAddr: 0x3980, symBinAddr: 0x100006E0C, symSize: 0x28 }
  - { offsetInCU: 0xB4D5, offset: 0xB4D5, size: 0x8, addend: 0x0, symName: __ZNSt3__114__split_bufferI4Vec2RNS_9allocatorIS1_EEED2Ev, symObjAddr: 0x39A8, symBinAddr: 0x100006E34, symSize: 0x8C }
  - { offsetInCU: 0xB4FE, offset: 0xB4FE, size: 0x8, addend: 0x0, symName: __ZNSt3__114__split_bufferI4Vec2RNS_9allocatorIS1_EEE5clearB8ue170006Ev, symObjAddr: 0x3A34, symBinAddr: 0x100006EC0, symSize: 0x28 }
  - { offsetInCU: 0xB522, offset: 0xB522, size: 0x8, addend: 0x0, symName: __ZNSt3__116allocator_traitsINS_9allocatorI4Vec2EEE10deallocateB8ue170006ERS3_PS2_m, symObjAddr: 0x3A5C, symBinAddr: 0x100006EE8, symSize: 0x34 }
  - { offsetInCU: 0xB563, offset: 0xB563, size: 0x8, addend: 0x0, symName: __ZNKSt3__114__split_bufferI4Vec2RNS_9allocatorIS1_EEE8capacityB8ue170006Ev, symObjAddr: 0x3A90, symBinAddr: 0x100006F1C, symSize: 0x40 }
  - { offsetInCU: 0xB587, offset: 0xB587, size: 0x8, addend: 0x0, symName: __ZNSt3__114__split_bufferI4Vec2RNS_9allocatorIS1_EEE17__destruct_at_endB8ue170006EPS1_, symObjAddr: 0x3AD0, symBinAddr: 0x100006F5C, symSize: 0x2C }
  - { offsetInCU: 0xB5B9, offset: 0xB5B9, size: 0x8, addend: 0x0, symName: __ZNSt3__114__split_bufferI4Vec2RNS_9allocatorIS1_EEE17__destruct_at_endB8ue170006EPS1_NS_17integral_constantIbLb0EEE, symObjAddr: 0x3AFC, symBinAddr: 0x100006F88, symSize: 0x80 }
  - { offsetInCU: 0xB5F7, offset: 0xB5F7, size: 0x8, addend: 0x0, symName: __ZNSt3__19allocatorI4Vec2E10deallocateB8ue170006EPS1_m, symObjAddr: 0x3B7C, symBinAddr: 0x100007008, symSize: 0x40 }
  - { offsetInCU: 0xB637, offset: 0xB637, size: 0x8, addend: 0x0, symName: __ZNKSt3__114__split_bufferI4Vec2RNS_9allocatorIS1_EEE9__end_capB8ue170006Ev, symObjAddr: 0x3BBC, symBinAddr: 0x100007048, symSize: 0x28 }
  - { offsetInCU: 0xB65B, offset: 0xB65B, size: 0x8, addend: 0x0, symName: __ZNKSt3__117__compressed_pairIP4Vec2RNS_9allocatorIS1_EEE5firstB8ue170006Ev, symObjAddr: 0x3BE4, symBinAddr: 0x100007070, symSize: 0x24 }
  - { offsetInCU: 0xB67F, offset: 0xB67F, size: 0x8, addend: 0x0, symName: __ZNSt3__16vectorI4Vec2NS_9allocatorIS1_EEE4dataB8ue170006Ev, symObjAddr: 0x3C08, symBinAddr: 0x100007094, symSize: 0x28 }
  - { offsetInCU: 0xB6A3, offset: 0xB6A3, size: 0x8, addend: 0x0, symName: __ZN10VisualizerC2EP4WallP4Vec2i, symObjAddr: 0x3C30, symBinAddr: 0x1000070BC, symSize: 0x40 }
  - { offsetInCU: 0xB6F6, offset: 0xB6F6, size: 0x8, addend: 0x0, symName: __ZN10Visualizer11intitializeEv, symObjAddr: 0x3C70, symBinAddr: 0x1000070FC, symSize: 0x4C }
  - { offsetInCU: 0xB708, offset: 0xB708, size: 0x8, addend: 0x0, symName: __ZN10Visualizer8showVecsEP4Vec2i, symObjAddr: 0x3CBC, symBinAddr: 0x100007148, symSize: 0x128 }
  - { offsetInCU: 0xB77E, offset: 0xB77E, size: 0x8, addend: 0x0, symName: __ZN10Visualizer9showWallsEP4Wall, symObjAddr: 0x3DE4, symBinAddr: 0x100007270, symSize: 0x110 }
  - { offsetInCU: 0xB7BC, offset: 0xB7BC, size: 0x8, addend: 0x0, symName: __ZN5WallsD2Ev, symObjAddr: 0x3EF4, symBinAddr: 0x100007380, symSize: 0x44 }
  - { offsetInCU: 0xB7E4, offset: 0xB7E4, size: 0x8, addend: 0x0, symName: __ZN8ColliderD2Ev, symObjAddr: 0x3F38, symBinAddr: 0x1000073C4, symSize: 0x2C }
  - { offsetInCU: 0xB80E, offset: 0xB80E, size: 0x8, addend: 0x0, symName: __ZNSt3__16vectorI4Vec2NS_9allocatorIS1_EEED1B8ue170006Ev, symObjAddr: 0x3F64, symBinAddr: 0x1000073F0, symSize: 0x2C }
  - { offsetInCU: 0xB836, offset: 0xB836, size: 0x8, addend: 0x0, symName: __ZNSt3__16vectorI4Vec2NS_9allocatorIS1_EEED2B8ue170006Ev, symObjAddr: 0x3F90, symBinAddr: 0x10000741C, symSize: 0x44 }
  - { offsetInCU: 0xB85E, offset: 0xB85E, size: 0x8, addend: 0x0, symName: __ZNSt3__16vectorI4Vec2NS_9allocatorIS1_EEE16__destroy_vectorC1B8ue170006ERS4_, symObjAddr: 0x3FD4, symBinAddr: 0x100007460, symSize: 0x34 }
  - { offsetInCU: 0xB895, offset: 0xB895, size: 0x8, addend: 0x0, symName: __ZNSt3__16vectorI4Vec2NS_9allocatorIS1_EEE16__destroy_vectorclB8ue170006Ev, symObjAddr: 0x4008, symBinAddr: 0x100007494, symSize: 0x90 }
  - { offsetInCU: 0xB8B9, offset: 0xB8B9, size: 0x8, addend: 0x0, symName: __ZNSt3__16vectorI4Vec2NS_9allocatorIS1_EEE16__destroy_vectorC2B8ue170006ERS4_, symObjAddr: 0x4098, symBinAddr: 0x100007524, symSize: 0x20 }
  - { offsetInCU: 0xB8F0, offset: 0xB8F0, size: 0x8, addend: 0x0, symName: __ZNSt3__16vectorI4Vec2NS_9allocatorIS1_EEE7__clearB8ue170006Ev, symObjAddr: 0x40B8, symBinAddr: 0x100007544, symSize: 0x28 }
  - { offsetInCU: 0xB914, offset: 0xB914, size: 0x8, addend: 0x0, symName: __ZNSt3__16vectorI4Vec2NS_9allocatorIS1_EEE22__base_destruct_at_endB8ue170006EPS1_, symObjAddr: 0x40E0, symBinAddr: 0x10000756C, symSize: 0x8C }
...
